target datalayout = "e-m:e-p270:32:32-p271:32:32-p272:64:64-i64:64-i128:128-f80:128-n8:16:32:64-S128"
target triple = "x86_64-pc-linux-gnu"

@.str.316 = private unnamed_addr constant [12 x i8] c"readfuncs.c\00", align 1
@.str.321 = private unnamed_addr constant [24 x i8] c"incomplete scalar array\00", align 1
@.str.322 = private unnamed_addr constant [27 x i8] c"unrecognized token: \22%.*s\22\00", align 1
@__func__.readOidCols = private unnamed_addr constant [12 x i8] c"readOidCols\00", align 1

; Function Attrs: nounwind uwtable
define dso_local ptr @readOidCols(i32 noundef %0) #0 {
  %2 = alloca ptr, align 8
  %3 = alloca i32, align 4
  %4 = alloca ptr, align 8
  %5 = alloca ptr, align 8
  %6 = alloca i32, align 4
  %7 = alloca i32, align 4
  %8 = alloca i32, align 4
  store i32 %0, ptr %3, align 4
  call void @llvm.lifetime.start.p0(i64 8, ptr %4) #9
  call void @llvm.lifetime.start.p0(i64 8, ptr %5) #9
  call void @llvm.lifetime.start.p0(i64 4, ptr %6) #9
  %9 = call ptr @pg_strtok(ptr noundef %6)
  store ptr %9, ptr %5, align 8
  %10 = load ptr, ptr %5, align 8
  %11 = icmp eq ptr %10, null
  br i1 %11, label %12, label %23

12:                                               ; preds = %1
  br label %13

13:                                               ; preds = %12
  br i1 true, label %14, label %16

14:                                               ; preds = %13
  %15 = call zeroext i1 @errstart_cold(i32 noundef 21, ptr noundef null) #10
  br i1 %15, label %18, label %20

16:                                               ; preds = %13
  %17 = call zeroext i1 @errstart(i32 noundef 21, ptr noundef null)
  br i1 %17, label %18, label %20

18:                                               ; preds = %16, %14
  %19 = call i32 (ptr, ...) @errmsg_internal(ptr noundef @.str.321)
  call void @errfinish(ptr noundef @.str.316, i32 noundef 685, ptr noundef @__func__.readOidCols)
  br label %20

20:                                               ; preds = %18, %16, %14
  unreachable

21:                                               ; No predecessors!
  br label %22

22:                                               ; preds = %21
  br label %23

23:                                               ; preds = %22, %1
  %24 = load i32, ptr %6, align 4
  %25 = icmp eq i32 %24, 0
  br i1 %25, label %26, label %27

26:                                               ; preds = %23
  store ptr null, ptr %2, align 8
  store i32 1, ptr %7, align 4
  br label %117

27:                                               ; preds = %23
  %28 = load i32, ptr %6, align 4
  %29 = icmp ne i32 %28, 1
  br i1 %29, label %36, label %30

30:                                               ; preds = %27
  %31 = load ptr, ptr %5, align 8
  %32 = getelementptr inbounds i8, ptr %31, i64 0
  %33 = load i8, ptr %32, align 1
  %34 = sext i8 %33 to i32
  %35 = icmp ne i32 %34, 40
  br i1 %35, label %36, label %49

36:                                               ; preds = %30, %27
  br label %37

37:                                               ; preds = %36
  br i1 true, label %38, label %40

38:                                               ; preds = %37
  %39 = call zeroext i1 @errstart_cold(i32 noundef 21, ptr noundef null) #10
  br i1 %39, label %42, label %46

40:                                               ; preds = %37
  %41 = call zeroext i1 @errstart(i32 noundef 21, ptr noundef null)
  br i1 %41, label %42, label %46

42:                                               ; preds = %40, %38
  %43 = load i32, ptr %6, align 4
  %44 = load ptr, ptr %5, align 8
  %45 = call i32 (ptr, ...) @errmsg_internal(ptr noundef @.str.322, i32 noundef %43, ptr noundef %44)
  call void @errfinish(ptr noundef @.str.316, i32 noundef 685, ptr noundef @__func__.readOidCols)
  br label %46

46:                                               ; preds = %42, %40, %38
  unreachable

47:                                               ; No predecessors!
  br label %48

48:                                               ; preds = %47
  br label %49

49:                                               ; preds = %48, %30
  %50 = load i32, ptr %3, align 4
  %51 = sext i32 %50 to i64
  %52 = mul i64 %51, 4
  %53 = call ptr @palloc(i64 noundef %52)
  store ptr %53, ptr %4, align 8
  call void @llvm.lifetime.start.p0(i64 4, ptr %8) #9
  store i32 0, ptr %8, align 4
  br label %54

54:                                               ; preds = %88, %49
  %55 = load i32, ptr %8, align 4
  %56 = load i32, ptr %3, align 4
  %57 = icmp slt i32 %55, %56
  br i1 %57, label %59, label %58

58:                                               ; preds = %54
  store i32 6, ptr %7, align 4
  call void @llvm.lifetime.end.p0(i64 4, ptr %8) #9
  br label %91

59:                                               ; preds = %54
  %60 = call ptr @pg_strtok(ptr noundef %6)
  store ptr %60, ptr %5, align 8
  %61 = load ptr, ptr %5, align 8
  %62 = icmp eq ptr %61, null
  br i1 %62, label %69, label %63

63:                                               ; preds = %59
  %64 = load ptr, ptr %5, align 8
  %65 = getelementptr inbounds i8, ptr %64, i64 0
  %66 = load i8, ptr %65, align 1
  %67 = sext i8 %66 to i32
  %68 = icmp eq i32 %67, 41
  br i1 %68, label %69, label %80

69:                                               ; preds = %63, %59
  br label %70

70:                                               ; preds = %69
  br i1 true, label %71, label %73

71:                                               ; preds = %70
  %72 = call zeroext i1 @errstart_cold(i32 noundef 21, ptr noundef null) #10
  br i1 %72, label %75, label %77

73:                                               ; preds = %70
  %74 = call zeroext i1 @errstart(i32 noundef 21, ptr noundef null)
  br i1 %74, label %75, label %77

75:                                               ; preds = %73, %71
  %76 = call i32 (ptr, ...) @errmsg_internal(ptr noundef @.str.321)
  call void @errfinish(ptr noundef @.str.316, i32 noundef 685, ptr noundef @__func__.readOidCols)
  br label %77

77:                                               ; preds = %75, %73, %71
  unreachable

78:                                               ; No predecessors!
  br label %79

79:                                               ; preds = %78
  br label %80

80:                                               ; preds = %79, %63
  %81 = load ptr, ptr %5, align 8
  %82 = call i64 @strtoul(ptr noundef %81, ptr noundef null, i32 noundef 10) #9
  %83 = trunc i64 %82 to i32
  %84 = load ptr, ptr %4, align 8
  %85 = load i32, ptr %8, align 4
  %86 = sext i32 %85 to i64
  %87 = getelementptr inbounds i32, ptr %84, i64 %86
  store i32 %83, ptr %87, align 4
  br label %88

88:                                               ; preds = %80
  %89 = load i32, ptr %8, align 4
  %90 = add i32 %89, 1
  store i32 %90, ptr %8, align 4
  br label %54, !llvm.loop !10

91:                                               ; preds = %58
  %92 = call ptr @pg_strtok(ptr noundef %6)
  store ptr %92, ptr %5, align 8
  %93 = load ptr, ptr %5, align 8
  %94 = icmp eq ptr %93, null
  br i1 %94, label %104, label %95

95:                                               ; preds = %91
  %96 = load i32, ptr %6, align 4
  %97 = icmp ne i32 %96, 1
  br i1 %97, label %104, label %98

98:                                               ; preds = %95
  %99 = load ptr, ptr %5, align 8
  %100 = getelementptr inbounds i8, ptr %99, i64 0
  %101 = load i8, ptr %100, align 1
  %102 = sext i8 %101 to i32
  %103 = icmp ne i32 %102, 41
  br i1 %103, label %104, label %115

104:                                              ; preds = %98, %95, %91
  br label %105

105:                                              ; preds = %104
  br i1 true, label %106, label %108

106:                                              ; preds = %105
  %107 = call zeroext i1 @errstart_cold(i32 noundef 21, ptr noundef null) #10
  br i1 %107, label %110, label %112

108:                                              ; preds = %105
  %109 = call zeroext i1 @errstart(i32 noundef 21, ptr noundef null)
  br i1 %109, label %110, label %112

110:                                              ; preds = %108, %106
  %111 = call i32 (ptr, ...) @errmsg_internal(ptr noundef @.str.321)
  call void @errfinish(ptr noundef @.str.316, i32 noundef 685, ptr noundef @__func__.readOidCols)
  br label %112

112:                                              ; preds = %110, %108, %106
  unreachable

113:                                              ; No predecessors!
  br label %114

114:                                              ; preds = %113
  br label %115

115:                                              ; preds = %114, %98
  %116 = load ptr, ptr %4, align 8
  store ptr %116, ptr %2, align 8
  store i32 1, ptr %7, align 4
  br label %117

117:                                              ; preds = %115, %26
  call void @llvm.lifetime.end.p0(i64 4, ptr %6) #9
  call void @llvm.lifetime.end.p0(i64 8, ptr %5) #9
  call void @llvm.lifetime.end.p0(i64 8, ptr %4) #9
  %118 = load ptr, ptr %2, align 8
  ret ptr %118
}