; Function Attrs: nounwind uwtable
define dso_local ptr @readOidCols(i32 noundef %0) local_unnamed_addr #0 {
  %2 = alloca i32, align 4
  call void @llvm.lifetime.start.p0(i64 4, ptr nonnull %2) #10
  %3 = call ptr @pg_strtok(ptr noundef nonnull %2) #10
  %4 = icmp eq ptr %3, null
  br i1 %4, label %5, label %8

5:                                                ; preds = %1
  %6 = call zeroext i1 @errstart_cold(i32 noundef 21, ptr noundef null) #11
  call void @llvm.assume(i1 %6)
  %7 = call i32 (ptr, ...) @errmsg_internal(ptr noundef nonnull @.str.321) #10
  call void @errfinish(ptr noundef nonnull @.str.316, i32 noundef 685, ptr noundef nonnull @__func__.readOidCols) #10
  unreachable

8:                                                ; preds = %1
  %9 = load i32, ptr %2, align 4
  switch i32 %9, label %12 [
    i32 0, label %42
    i32 1, label %10
  ]

10:                                               ; preds = %8
  %11 = load i8, ptr %3, align 1
  %.not21 = icmp eq i8 %11, 40
  br i1 %.not21, label %16, label %12

12:                                               ; preds = %8, %10
  %13 = call zeroext i1 @errstart_cold(i32 noundef 21, ptr noundef null) #11
  call void @llvm.assume(i1 %13)
  %14 = load i32, ptr %2, align 4
  %15 = call i32 (ptr, ...) @errmsg_internal(ptr noundef nonnull @.str.322, i32 noundef %14, ptr noundef nonnull %3) #10
  call void @errfinish(ptr noundef nonnull @.str.316, i32 noundef 685, ptr noundef nonnull @__func__.readOidCols) #10
  unreachable

16:                                               ; preds = %10
  %17 = sext i32 %0 to i64
  %18 = shl nsw i64 %17, 2
  %19 = call ptr @palloc(i64 noundef %18) #10
  %20 = icmp sgt i32 %0, 0
  br i1 %20, label %.lr.ph.preheader, label %._crit_edge

.lr.ph.preheader:                                 ; preds = %16
  %wide.trip.count = zext nneg i32 %0 to i64
  br label %.lr.ph

._crit_edge:                                      ; preds = %33, %16
  %21 = call ptr @pg_strtok(ptr noundef nonnull %2) #10
  %22 = icmp eq ptr %21, null
  %23 = load i32, ptr %2, align 4
  %24 = icmp ne i32 %23, 1
  %or.cond = select i1 %22, i1 true, i1 %24
  br i1 %or.cond, label %39, label %37

.lr.ph:                                           ; preds = %.lr.ph.preheader, %33
  %indvars.iv = phi i64 [ 0, %.lr.ph.preheader ], [ %indvars.iv.next, %33 ]
  %25 = call ptr @pg_strtok(ptr noundef nonnull %2) #10
  %26 = icmp eq ptr %25, null
  br i1 %26, label %30, label %27

27:                                               ; preds = %.lr.ph
  %28 = load i8, ptr %25, align 1
  %29 = icmp eq i8 %28, 41
  br i1 %29, label %30, label %33

30:                                               ; preds = %27, %.lr.ph
  %31 = call zeroext i1 @errstart_cold(i32 noundef 21, ptr noundef null) #11
  call void @llvm.assume(i1 %31)
  %32 = call i32 (ptr, ...) @errmsg_internal(ptr noundef nonnull @.str.321) #10
  call void @errfinish(ptr noundef nonnull @.str.316, i32 noundef 685, ptr noundef nonnull @__func__.readOidCols) #10
  unreachable

33:                                               ; preds = %27
  %34 = call i64 @strtoul(ptr noundef nonnull captures(none) %25, ptr noundef null, i32 noundef 10) #10
  %35 = trunc i64 %34 to i32
  %36 = getelementptr inbounds nuw i32, ptr %19, i64 %indvars.iv
  store i32 %35, ptr %36, align 4
  %indvars.iv.next = add nuw nsw i64 %indvars.iv, 1
  %exitcond.not = icmp eq i64 %indvars.iv.next, %wide.trip.count
  br i1 %exitcond.not, label %._crit_edge, label %.lr.ph, !llvm.loop !10

37:                                               ; preds = %._crit_edge
  %38 = load i8, ptr %21, align 1
  %.not22 = icmp eq i8 %38, 41
  br i1 %.not22, label %42, label %39

39:                                               ; preds = %37, %._crit_edge
  %40 = call zeroext i1 @errstart_cold(i32 noundef 21, ptr noundef null) #11
  call void @llvm.assume(i1 %40)
  %41 = call i32 (ptr, ...) @errmsg_internal(ptr noundef nonnull @.str.321) #10
  call void @errfinish(ptr noundef nonnull @.str.316, i32 noundef 685, ptr noundef nonnull @__func__.readOidCols) #10
  unreachable

42:                                               ; preds = %37, %8
  %.016 = phi ptr [ null, %8 ], [ %19, %37 ]
  call void @llvm.lifetime.end.p0(i64 4, ptr nonnull %2) #10
  ret ptr %.016
}